; ModuleID = '19/1241.c'
source_filename = "19/1241.c"
target datalayout = "e-m:e-p270:32:32-p271:32:32-p272:64:64-i64:64-f80:128-n8:16:32:64-S128"
target triple = "x86_64-pc-linux-gnu"

@.str = private unnamed_addr constant [3 x i8] c"%c\00", align 1
@.str.1 = private unnamed_addr constant [4 x i8] c"%s \00", align 1
@.str.2 = private unnamed_addr constant [3 x i8] c"%s\00", align 1

; Function Attrs: noinline nounwind uwtable
define dso_local i32 @main() #0 {
  %1 = alloca i32, align 4
  %2 = alloca [100 x i8*], align 16
  %3 = alloca i8*, align 8
  %4 = alloca i8*, align 8
  %5 = alloca i32, align 4
  %6 = alloca i32, align 4
  %7 = alloca i32, align 4
  store i32 0, i32* %1, align 4
  store i32 0, i32* %5, align 4
  br label %8

8:                                                ; preds = %30, %0
  %9 = load i32, i32* %5, align 4
  %10 = icmp slt i32 %9, 100
  br i1 %10, label %11, label %33

11:                                               ; preds = %8
  %12 = load i32, i32* %5, align 4
  %13 = sext i32 %12 to i64
  %14 = getelementptr inbounds [100 x i8*], [100 x i8*]* %2, i64 0, i64 %13
  store i8* inttoptr (i64 100 to i8*), i8** %14, align 8
  store i32 0, i32* %6, align 4
  br label %15

15:                                               ; preds = %26, %11
  %16 = load i32, i32* %6, align 4
  %17 = icmp slt i32 %16, 100
  br i1 %17, label %18, label %29

18:                                               ; preds = %15
  %19 = load i32, i32* %5, align 4
  %20 = sext i32 %19 to i64
  %21 = getelementptr inbounds [100 x i8*], [100 x i8*]* %2, i64 0, i64 %20
  %22 = load i8*, i8** %21, align 8
  %23 = load i32, i32* %6, align 4
  %24 = sext i32 %23 to i64
  %25 = getelementptr inbounds i8, i8* %22, i64 %24
  store i8 0, i8* %25, align 1
  br label %26

26:                                               ; preds = %18
  %27 = load i32, i32* %6, align 4
  %28 = add nsw i32 %27, 1
  store i32 %28, i32* %6, align 4
  br label %15

29:                                               ; preds = %15
  br label %30

30:                                               ; preds = %29
  %31 = load i32, i32* %5, align 4
  %32 = add nsw i32 %31, 1
  store i32 %32, i32* %5, align 4
  br label %8

33:                                               ; preds = %8
  store i32 0, i32* %5, align 4
  br label %34

34:                                               ; preds = %102, %33
  store i32 0, i32* %6, align 4
  br label %35

35:                                               ; preds = %78, %34
  %36 = load i32, i32* %6, align 4
  %37 = icmp slt i32 %36, 100
  br i1 %37, label %38, label %81

38:                                               ; preds = %35
  %39 = load i32, i32* %5, align 4
  %40 = sext i32 %39 to i64
  %41 = getelementptr inbounds [100 x i8*], [100 x i8*]* %2, i64 0, i64 %40
  %42 = load i8*, i8** %41, align 8
  %43 = load i32, i32* %6, align 4
  %44 = sext i32 %43 to i64
  %45 = getelementptr inbounds i8, i8* %42, i64 %44
  %46 = call i32 (i8*, ...) @__isoc99_scanf(i8* getelementptr inbounds ([3 x i8], [3 x i8]* @.str, i64 0, i64 0), i8* %45)
  %47 = load i32, i32* %5, align 4
  %48 = sext i32 %47 to i64
  %49 = getelementptr inbounds [100 x i8*], [100 x i8*]* %2, i64 0, i64 %48
  %50 = load i8*, i8** %49, align 8
  %51 = load i32, i32* %6, align 4
  %52 = sext i32 %51 to i64
  %53 = getelementptr inbounds i8, i8* %50, i64 %52
  %54 = load i8, i8* %53, align 1
  %55 = sext i8 %54 to i32
  %56 = icmp eq i32 %55, 32
  br i1 %56, label %57, label %65

57:                                               ; preds = %38
  %58 = load i32, i32* %5, align 4
  %59 = sext i32 %58 to i64
  %60 = getelementptr inbounds [100 x i8*], [100 x i8*]* %2, i64 0, i64 %59
  %61 = load i8*, i8** %60, align 8
  %62 = load i32, i32* %6, align 4
  %63 = sext i32 %62 to i64
  %64 = getelementptr inbounds i8, i8* %61, i64 %63
  store i8 0, i8* %64, align 1
  br label %81

65:                                               ; preds = %38
  %66 = load i32, i32* %5, align 4
  %67 = sext i32 %66 to i64
  %68 = getelementptr inbounds [100 x i8*], [100 x i8*]* %2, i64 0, i64 %67
  %69 = load i8*, i8** %68, align 8
  %70 = load i32, i32* %6, align 4
  %71 = sext i32 %70 to i64
  %72 = getelementptr inbounds i8, i8* %69, i64 %71
  %73 = load i8, i8* %72, align 1
  %74 = sext i8 %73 to i32
  %75 = icmp eq i32 %74, 10
  br i1 %75, label %76, label %77

76:                                               ; preds = %65
  br label %81

77:                                               ; preds = %65
  br label %78

78:                                               ; preds = %77
  %79 = load i32, i32* %6, align 4
  %80 = add nsw i32 %79, 1
  store i32 %80, i32* %6, align 4
  br label %35

81:                                               ; preds = %76, %57, %35
  %82 = load i32, i32* %5, align 4
  %83 = sext i32 %82 to i64
  %84 = getelementptr inbounds [100 x i8*], [100 x i8*]* %2, i64 0, i64 %83
  %85 = load i8*, i8** %84, align 8
  %86 = load i32, i32* %6, align 4
  %87 = sext i32 %86 to i64
  %88 = getelementptr inbounds i8, i8* %85, i64 %87
  %89 = load i8, i8* %88, align 1
  %90 = sext i8 %89 to i32
  %91 = icmp eq i32 %90, 10
  br i1 %91, label %92, label %101

92:                                               ; preds = %81
  %93 = load i32, i32* %5, align 4
  store i32 %93, i32* %7, align 4
  %94 = load i32, i32* %5, align 4
  %95 = sext i32 %94 to i64
  %96 = getelementptr inbounds [100 x i8*], [100 x i8*]* %2, i64 0, i64 %95
  %97 = load i8*, i8** %96, align 8
  %98 = load i32, i32* %6, align 4
  %99 = sext i32 %98 to i64
  %100 = getelementptr inbounds i8, i8* %97, i64 %99
  store i8 0, i8* %100, align 1
  br label %105

101:                                              ; preds = %81
  br label %102

102:                                              ; preds = %101
  %103 = load i32, i32* %5, align 4
  %104 = add nsw i32 %103, 1
  store i32 %104, i32* %5, align 4
  br label %34

105:                                              ; preds = %92
  store i8* inttoptr (i64 100 to i8*), i8** %3, align 8
  store i8* inttoptr (i64 100 to i8*), i8** %4, align 8
  %106 = load i8*, i8** %3, align 8
  %107 = call i32 (i8*, ...) bitcast (i32 (...)* @gets to i32 (i8*, ...)*)(i8* %106)
  %108 = load i8*, i8** %4, align 8
  %109 = call i32 (i8*, ...) bitcast (i32 (...)* @gets to i32 (i8*, ...)*)(i8* %108)
  store i32 0, i32* %5, align 4
  br label %110

110:                                              ; preds = %155, %105
  %111 = load i32, i32* %5, align 4
  %112 = load i32, i32* %7, align 4
  %113 = icmp sle i32 %111, %112
  br i1 %113, label %114, label %158

114:                                              ; preds = %110
  %115 = load i8*, i8** %3, align 8
  %116 = load i32, i32* %5, align 4
  %117 = sext i32 %116 to i64
  %118 = getelementptr inbounds [100 x i8*], [100 x i8*]* %2, i64 0, i64 %117
  %119 = load i8*, i8** %118, align 8
  %120 = call i32 @strcmp(i8* %115, i8* %119) #4
  %121 = icmp ne i32 %120, 0
  br i1 %121, label %154, label %122

122:                                              ; preds = %114
  store i32 0, i32* %6, align 4
  br label %123

123:                                              ; preds = %144, %122
  %124 = load i32, i32* %5, align 4
  %125 = sext i32 %124 to i64
  %126 = getelementptr inbounds [100 x i8*], [100 x i8*]* %2, i64 0, i64 %125
  %127 = load i8*, i8** %126, align 8
  %128 = load i32, i32* %6, align 4
  %129 = sext i32 %128 to i64
  %130 = getelementptr inbounds i8, i8* %127, i64 %129
  %131 = load i8, i8* %130, align 1
  %132 = sext i8 %131 to i32
  %133 = icmp eq i32 %132, 0
  br i1 %133, label %134, label %135

134:                                              ; preds = %123
  br label %147

135:                                              ; preds = %123
  %136 = load i32, i32* %5, align 4
  %137 = sext i32 %136 to i64
  %138 = getelementptr inbounds [100 x i8*], [100 x i8*]* %2, i64 0, i64 %137
  %139 = load i8*, i8** %138, align 8
  %140 = load i32, i32* %6, align 4
  %141 = sext i32 %140 to i64
  %142 = getelementptr inbounds i8, i8* %139, i64 %141
  store i8 0, i8* %142, align 1
  br label %143

143:                                              ; preds = %135
  br label %144

144:                                              ; preds = %143
  %145 = load i32, i32* %6, align 4
  %146 = add nsw i32 %145, 1
  store i32 %146, i32* %6, align 4
  br label %123

147:                                              ; preds = %134
  %148 = load i32, i32* %5, align 4
  %149 = sext i32 %148 to i64
  %150 = getelementptr inbounds [100 x i8*], [100 x i8*]* %2, i64 0, i64 %149
  %151 = load i8*, i8** %150, align 8
  %152 = load i8*, i8** %4, align 8
  %153 = call i8* @strcpy(i8* %151, i8* %152) #5
  br label %154

154:                                              ; preds = %147, %114
  br label %155

155:                                              ; preds = %154
  %156 = load i32, i32* %5, align 4
  %157 = add nsw i32 %156, 1
  store i32 %157, i32* %5, align 4
  br label %110

158:                                              ; preds = %110
  store i32 0, i32* %5, align 4
  br label %159

159:                                              ; preds = %169, %158
  %160 = load i32, i32* %5, align 4
  %161 = load i32, i32* %7, align 4
  %162 = icmp slt i32 %160, %161
  br i1 %162, label %163, label %172

163:                                              ; preds = %159
  %164 = load i32, i32* %5, align 4
  %165 = sext i32 %164 to i64
  %166 = getelementptr inbounds [100 x i8*], [100 x i8*]* %2, i64 0, i64 %165
  %167 = load i8*, i8** %166, align 8
  %168 = call i32 (i8*, ...) @printf(i8* getelementptr inbounds ([4 x i8], [4 x i8]* @.str.1, i64 0, i64 0), i8* %167)
  br label %169

169:                                              ; preds = %163
  %170 = load i32, i32* %5, align 4
  %171 = add nsw i32 %170, 1
  store i32 %171, i32* %5, align 4
  br label %159

172:                                              ; preds = %159
  %173 = load i32, i32* %7, align 4
  %174 = sext i32 %173 to i64
  %175 = getelementptr inbounds [100 x i8*], [100 x i8*]* %2, i64 0, i64 %174
  %176 = load i8*, i8** %175, align 8
  %177 = call i32 (i8*, ...) @printf(i8* getelementptr inbounds ([3 x i8], [3 x i8]* @.str.2, i64 0, i64 0), i8* %176)
  %178 = load i32, i32* %1, align 4
  ret i32 %178
}

declare dso_local i32 @__isoc99_scanf(i8*, ...) #1

declare dso_local i32 @gets(...) #1

; Function Attrs: nounwind readonly
declare dso_local i32 @strcmp(i8*, i8*) #2

; Function Attrs: nounwind
declare dso_local i8* @strcpy(i8*, i8*) #3

declare dso_local i32 @printf(i8*, ...) #1


!llvm.module.flags = !{!0}
!llvm.ident = !{!1}

!0 = !{i32 1, !"wchar_size", i32 4}
!1 = !{!"clang version 10.0.0-4ubuntu1 "}
